target datalayout = "e-m:e-p270:32:32-p271:32:32-p272:64:64-i64:64-i128:128-f80:128-n8:16:32:64-S128"
target triple = "x86_64-pc-linux-gnu"

%struct._php_stream_xport_crypto_param = type { %struct.anon.10, %struct.anon.11, i32 }
%struct.anon.10 = type { ptr, i32, i32 }
%struct.anon.11 = type { i32 }

@.str.11 = private unnamed_addr constant [15 x i8] c"streams.crypto\00", align 1
@.str.12 = private unnamed_addr constant [40 x i8] c"This stream does not support SSL/crypto\00", align 1

; Function Attrs: nounwind uwtable
define i32 @php_stream_xport_crypto_enable(ptr noundef %0, i32 noundef %1) #0 {
  %3 = alloca i32, align 4
  %4 = alloca ptr, align 8
  %5 = alloca i32, align 4
  %6 = alloca %struct._php_stream_xport_crypto_param, align 8
  %7 = alloca i32, align 4
  store ptr %0, ptr %4, align 8
  store i32 %1, ptr %5, align 4
  call void @llvm.memset.p0.i64(ptr align 8 %6, i8 0, i64 24, i1 false)
  %8 = getelementptr inbounds %struct._php_stream_xport_crypto_param, ptr %6, i32 0, i32 2
  store i32 1, ptr %8, align 4
  %9 = load i32, ptr %5, align 4
  %10 = getelementptr inbounds %struct._php_stream_xport_crypto_param, ptr %6, i32 0, i32 0
  %11 = getelementptr inbounds %struct.anon.10, ptr %10, i32 0, i32 1
  store i32 %9, ptr %11, align 8
  %12 = load ptr, ptr %4, align 8
  %13 = call i32 @_php_stream_set_option(ptr noundef %12, i32 noundef 8, i32 noundef 0, ptr noundef %6)
  store i32 %13, ptr %7, align 4
  %14 = load i32, ptr %7, align 4
  %15 = icmp eq i32 %14, 0
  br i1 %15, label %16, label %20

16:                                               ; preds = %2
  %17 = getelementptr inbounds %struct._php_stream_xport_crypto_param, ptr %6, i32 0, i32 1
  %18 = getelementptr inbounds %struct.anon.11, ptr %17, i32 0, i32 0
  %19 = load i32, ptr %18, align 8
  store i32 %19, ptr %3, align 4
  br label %22

20:                                               ; preds = %2
  call void (ptr, i32, ptr, ...) @php_error_docref(ptr noundef @.str.11, i32 noundef 2, ptr noundef @.str.12)
  %21 = load i32, ptr %7, align 4
  store i32 %21, ptr %3, align 4
  br label %22

22:                                               ; preds = %20, %16
  %23 = load i32, ptr %3, align 4
  ret i32 %23
}