; Function Attrs: nounwind uwtable
define i32 @php_stream_xport_crypto_enable(ptr noundef %0, i32 noundef %1) local_unnamed_addr #1 {
  %3 = alloca %struct._php_stream_xport_crypto_param, align 8
  call void @llvm.memset.p0.i64(ptr noundef nonnull align 8 dereferenceable(24) %3, i8 0, i64 24, i1 false)
  %4 = getelementptr inbounds i8, ptr %3, i64 20
  store i32 1, ptr %4, align 4
  %5 = getelementptr inbounds i8, ptr %3, i64 8
  store i32 %1, ptr %5, align 8
  %6 = call i32 @_php_stream_set_option(ptr noundef %0, i32 noundef 8, i32 noundef 0, ptr noundef nonnull %3) #14
  %7 = icmp eq i32 %6, 0
  br i1 %7, label %8, label %11

8:                                                ; preds = %2
  %9 = getelementptr inbounds i8, ptr %3, i64 16
  %10 = load i32, ptr %9, align 8
  br label %12

11:                                               ; preds = %2
  call void (ptr, i32, ptr, ...) @php_error_docref(ptr noundef nonnull @.str.11, i32 noundef 2, ptr noundef nonnull @.str.12) #14
  br label %12

12:                                               ; preds = %11, %8
  %.0 = phi i32 [ %10, %8 ], [ %6, %11 ]
  ret i32 %.0
}